target datalayout = "e-m:e-p270:32:32-p271:32:32-p272:64:64-i64:64-i128:128-f80:128-n8:16:32:64-S128"
target triple = "x86_64-pc-linux-gnu"

@hf_edonkey_list_size = internal global i32 0, align 4
@ett_edonkey_listitem = internal global i32 0, align 4
@.str.418 = private unnamed_addr constant [17 x i8] c"%s List Size: %u\00", align 1
@.str.419 = private unnamed_addr constant [10 x i8] c"%s[%u/%u]\00", align 1

; Function Attrs: null_pointer_is_valid sspstrong uwtable
define internal i32 @dissect_edonkey_list(ptr noundef %0, ptr noundef %1, i32 noundef %2, ptr noundef %3, i32 noundef %4, ptr noundef %5, ptr noundef %6) #0 {
  %8 = alloca i32, align 4
  %9 = alloca ptr, align 8
  %10 = alloca ptr, align 8
  %11 = alloca i32, align 4
  %12 = alloca ptr, align 8
  %13 = alloca i32, align 4
  %14 = alloca ptr, align 8
  %15 = alloca ptr, align 8
  %16 = alloca i32, align 4
  %17 = alloca i32, align 4
  %18 = alloca ptr, align 8
  %19 = alloca ptr, align 8
  %20 = alloca ptr, align 8
  %21 = alloca i32, align 4
  %22 = alloca i32, align 4
  %23 = alloca i32, align 4
  store ptr %0, ptr %9, align 8
  store ptr %1, ptr %10, align 8
  store i32 %2, ptr %11, align 4
  store ptr %3, ptr %12, align 8
  store i32 %4, ptr %13, align 4
  store ptr %5, ptr %14, align 8
  store ptr %6, ptr %15, align 8
  call void @llvm.lifetime.start.p0(i64 4, ptr %16) #6
  call void @llvm.lifetime.start.p0(i64 4, ptr %17) #6
  call void @llvm.lifetime.start.p0(i64 8, ptr %18) #6
  call void @llvm.lifetime.start.p0(i64 8, ptr %19) #6
  call void @llvm.lifetime.start.p0(i64 8, ptr %20) #6
  call void @llvm.lifetime.start.p0(i64 4, ptr %21) #6
  %24 = load i32, ptr %11, align 4
  store i32 %24, ptr %21, align 4
  %25 = load i32, ptr %13, align 4
  switch i32 %25, label %49 [
    i32 -1, label %26
    i32 1, label %26
    i32 -2, label %31
    i32 2, label %36
    i32 4, label %41
    i32 -4, label %45
  ]

26:                                               ; preds = %7, %7
  %27 = load ptr, ptr %9, align 8
  %28 = load i32, ptr %11, align 4
  %29 = call zeroext i8 @tvb_get_uint8(ptr noundef %27, i32 noundef %28)
  %30 = zext i8 %29 to i32
  store i32 %30, ptr %16, align 4
  br label %51

31:                                               ; preds = %7
  %32 = load ptr, ptr %9, align 8
  %33 = load i32, ptr %11, align 4
  %34 = call zeroext i16 @tvb_get_ntohs(ptr noundef %32, i32 noundef %33)
  %35 = zext i16 %34 to i32
  store i32 %35, ptr %16, align 4
  br label %51

36:                                               ; preds = %7
  %37 = load ptr, ptr %9, align 8
  %38 = load i32, ptr %11, align 4
  %39 = call zeroext i16 @tvb_get_letohs(ptr noundef %37, i32 noundef %38)
  %40 = zext i16 %39 to i32
  store i32 %40, ptr %16, align 4
  br label %51

41:                                               ; preds = %7
  %42 = load ptr, ptr %9, align 8
  %43 = load i32, ptr %11, align 4
  %44 = call i32 @tvb_get_letohl(ptr noundef %42, i32 noundef %43)
  store i32 %44, ptr %16, align 4
  br label %51

45:                                               ; preds = %7
  %46 = load ptr, ptr %9, align 8
  %47 = load i32, ptr %11, align 4
  %48 = call i32 @tvb_get_ntohl(ptr noundef %46, i32 noundef %47)
  store i32 %48, ptr %16, align 4
  br label %51

49:                                               ; preds = %7
  %50 = load i32, ptr %11, align 4
  store i32 %50, ptr %8, align 4
  store i32 1, ptr %22, align 4
  br label %104

51:                                               ; preds = %45, %41, %36, %31, %26
  %52 = load i32, ptr %13, align 4
  %53 = icmp slt i32 %52, 0
  br i1 %53, label %54, label %57

54:                                               ; preds = %51
  %55 = load i32, ptr %13, align 4
  %56 = sub i32 0, %55
  store i32 %56, ptr %13, align 4
  br label %57

57:                                               ; preds = %54, %51
  %58 = load ptr, ptr %12, align 8
  %59 = load i32, ptr @hf_edonkey_list_size, align 4
  %60 = load ptr, ptr %9, align 8
  %61 = load i32, ptr %11, align 4
  %62 = load i32, ptr %13, align 4
  %63 = load i32, ptr %16, align 4
  %64 = load ptr, ptr %14, align 8
  %65 = load i32, ptr %16, align 4
  %66 = call ptr (ptr, i32, ptr, i32, i32, i32, ptr, ...) @proto_tree_add_uint_format(ptr noundef %58, i32 noundef %59, ptr noundef %60, i32 noundef %61, i32 noundef %62, i32 noundef %63, ptr noundef @.str.418, ptr noundef %64, i32 noundef %65)
  store ptr %66, ptr %20, align 8
  %67 = load i32, ptr %13, align 4
  %68 = load i32, ptr %11, align 4
  %69 = add i32 %68, %67
  store i32 %69, ptr %11, align 4
  store i32 0, ptr %17, align 4
  br label %70

70:                                               ; preds = %95, %57
  %71 = load i32, ptr %17, align 4
  %72 = load i32, ptr %16, align 4
  %73 = icmp ult i32 %71, %72
  br i1 %73, label %74, label %98

74:                                               ; preds = %70
  call void @llvm.lifetime.start.p0(i64 4, ptr %23) #6
  %75 = load i32, ptr %11, align 4
  store i32 %75, ptr %23, align 4
  %76 = load ptr, ptr %12, align 8
  %77 = load ptr, ptr %9, align 8
  %78 = load i32, ptr %23, align 4
  %79 = load i32, ptr @ett_edonkey_listitem, align 4
  %80 = load ptr, ptr %14, align 8
  %81 = load i32, ptr %17, align 4
  %82 = add i32 %81, 1
  %83 = load i32, ptr %16, align 4
  %84 = call ptr (ptr, ptr, i32, i32, i32, ptr, ptr, ...) @proto_tree_add_subtree_format(ptr noundef %76, ptr noundef %77, i32 noundef %78, i32 noundef 1, i32 noundef %79, ptr noundef %19, ptr noundef @.str.419, ptr noundef %80, i32 noundef %82, i32 noundef %83)
  store ptr %84, ptr %18, align 8
  %85 = load ptr, ptr %15, align 8
  %86 = load ptr, ptr %9, align 8
  %87 = load ptr, ptr %10, align 8
  %88 = load i32, ptr %11, align 4
  %89 = load ptr, ptr %18, align 8
  %90 = call i32 %85(ptr noundef %86, ptr noundef %87, i32 noundef %88, ptr noundef %89)
  store i32 %90, ptr %11, align 4
  %91 = load ptr, ptr %19, align 8
  %92 = load i32, ptr %11, align 4
  %93 = load i32, ptr %23, align 4
  %94 = sub i32 %92, %93
  call void @proto_item_set_len(ptr noundef %91, i32 noundef %94)
  call void @llvm.lifetime.end.p0(i64 4, ptr %23) #6
  br label %95

95:                                               ; preds = %74
  %96 = load i32, ptr %17, align 4
  %97 = add i32 %96, 1
  store i32 %97, ptr %17, align 4
  br label %70, !llvm.loop !11

98:                                               ; preds = %70
  %99 = load ptr, ptr %20, align 8
  %100 = load i32, ptr %11, align 4
  %101 = load i32, ptr %21, align 4
  %102 = sub i32 %100, %101
  call void @proto_item_set_len(ptr noundef %99, i32 noundef %102)
  %103 = load i32, ptr %11, align 4
  store i32 %103, ptr %8, align 4
  store i32 1, ptr %22, align 4
  br label %104

104:                                              ; preds = %98, %49
  call void @llvm.lifetime.end.p0(i64 4, ptr %21) #6
  call void @llvm.lifetime.end.p0(i64 8, ptr %20) #6
  call void @llvm.lifetime.end.p0(i64 8, ptr %19) #6
  call void @llvm.lifetime.end.p0(i64 8, ptr %18) #6
  call void @llvm.lifetime.end.p0(i64 4, ptr %17) #6
  call void @llvm.lifetime.end.p0(i64 4, ptr %16) #6
  %105 = load i32, ptr %8, align 4
  ret i32 %105
}