; Function Attrs: null_pointer_is_valid sspstrong uwtable
define internal fastcc i32 @dissect_edonkey_list(ptr noundef %0, ptr noundef %1, i32 noundef %2, ptr noundef %3, i32 noundef range(i32 1, 5) %4, ptr noundef %5, ptr noundef readonly captures(none) %6) unnamed_addr #0 {
  %8 = alloca ptr, align 8
  call void @llvm.lifetime.start.p0(i64 8, ptr nonnull %8) #7
  switch i32 %4, label %28 [
    i32 2, label %12
    i32 1, label %9
    i32 4, label %15
  ]

9:                                                ; preds = %7
  %10 = tail call zeroext i8 @tvb_get_uint8(ptr noundef %0, i32 noundef %2)
  %11 = zext i8 %10 to i32
  br label %17

12:                                               ; preds = %7
  %13 = tail call zeroext i16 @tvb_get_letohs(ptr noundef %0, i32 noundef %2)
  %14 = zext i16 %13 to i32
  br label %17

15:                                               ; preds = %7
  %16 = tail call i32 @tvb_get_letohl(ptr noundef %0, i32 noundef %2)
  br label %17

17:                                               ; preds = %9, %12, %15
  %.047 = phi i32 [ %16, %15 ], [ %14, %12 ], [ %11, %9 ]
  %18 = load i32, ptr @hf_edonkey_list_size, align 4
  %19 = tail call ptr (ptr, i32, ptr, i32, i32, i32, ptr, ...) @proto_tree_add_uint_format(ptr noundef %3, i32 noundef %18, ptr noundef %0, i32 noundef %2, i32 noundef %4, i32 noundef %.047, ptr noundef nonnull @.str.418, ptr noundef %5, i32 noundef %.047)
  %20 = add i32 %4, %2
  %.not = icmp eq i32 %.047, 0
  br i1 %.not, label %._crit_edge, label %.lr.ph

.lr.ph:                                           ; preds = %17, %.lr.ph
  %.04551 = phi i32 [ %24, %.lr.ph ], [ %20, %17 ]
  %.04850 = phi i32 [ %22, %.lr.ph ], [ 0, %17 ]
  %21 = load i32, ptr @ett_edonkey_listitem, align 4
  %22 = add nuw i32 %.04850, 1
  %23 = call ptr (ptr, ptr, i32, i32, i32, ptr, ptr, ...) @proto_tree_add_subtree_format(ptr noundef %3, ptr noundef %0, i32 noundef %.04551, i32 noundef 1, i32 noundef %21, ptr noundef nonnull %8, ptr noundef nonnull @.str.419, ptr noundef %5, i32 noundef %22, i32 noundef %.047)
  %24 = call i32 %6(ptr noundef %0, ptr noundef %1, i32 noundef %.04551, ptr noundef %23)
  %25 = load ptr, ptr %8, align 8
  %26 = sub i32 %24, %.04551
  call void @proto_item_set_len(ptr noundef %25, i32 noundef %26)
  %exitcond.not = icmp eq i32 %22, %.047
  br i1 %exitcond.not, label %._crit_edge, label %.lr.ph, !llvm.loop !12

._crit_edge:                                      ; preds = %.lr.ph, %17
  %.045.lcssa = phi i32 [ %20, %17 ], [ %24, %.lr.ph ]
  %27 = sub i32 %.045.lcssa, %2
  call void @proto_item_set_len(ptr noundef %19, i32 noundef %27)
  br label %28

28:                                               ; preds = %7, %._crit_edge
  %.0 = phi i32 [ %.045.lcssa, %._crit_edge ], [ %2, %7 ]
  call void @llvm.lifetime.end.p0(i64 8, ptr nonnull %8) #7
  ret i32 %.0
}